target datalayout = "e-m:e-p270:32:32-p271:32:32-p272:64:64-i64:64-i128:128-f80:128-n8:16:32:64-S128"
target triple = "x86_64-pc-linux-gnu"

@lchId_type_table = hidden global [16 x i8] c"\00\01\01\01\01\03\03\03\01\02\00\02\02\03\02\04", align 16
@lch_contents = internal global [16 x i32] [i32 1, i32 1, i32 1, i32 1, i32 3, i32 3, i32 3, i32 1, i32 2, i32 0, i32 2, i32 2, i32 3, i32 2, i32 4, i32 1], align 16
@nbap_setup_conv_table = internal global ptr null, align 8

; Function Attrs: null_pointer_is_valid sspstrong uwtable
define internal void @nbap_init() #0 {
  %1 = alloca i8, align 1
  call void @llvm.lifetime.start.p0(i64 1, ptr %1) #13
  %2 = call ptr @wmem_file_scope()
  %3 = call noalias ptr @wmem_map_new(ptr noundef %2, ptr noundef @g_direct_hash, ptr noundef @g_direct_equal)
  store ptr %3, ptr @nbap_setup_conv_table, align 8
  store i8 0, ptr %1, align 1
  br label %4

4:                                                ; preds = %19, %0
  %5 = load i8, ptr %1, align 1
  %6 = zext i8 %5 to i32
  %7 = icmp slt i32 %6, 15
  br i1 %7, label %8, label %22

8:                                                ; preds = %4
  %9 = load i8, ptr %1, align 1
  %10 = zext i8 %9 to i64
  %11 = getelementptr [16 x i32], ptr @lch_contents, i64 0, i64 %10
  %12 = load i32, ptr %11, align 4
  %13 = trunc i32 %12 to i8
  %14 = load i8, ptr %1, align 1
  %15 = zext i8 %14 to i32
  %16 = add i32 %15, 1
  %17 = sext i32 %16 to i64
  %18 = getelementptr [16 x i8], ptr @lchId_type_table, i64 0, i64 %17
  store i8 %13, ptr %18, align 1
  br label %19

19:                                               ; preds = %8
  %20 = load i8, ptr %1, align 1
  %21 = add i8 %20, 1
  store i8 %21, ptr %1, align 1
  br label %4, !llvm.loop !8

22:                                               ; preds = %4
  call void @llvm.lifetime.end.p0(i64 1, ptr %1) #13
  ret void
}