; Function Attrs: null_pointer_is_valid sspstrong uwtable
define internal void @nbap_init() #0 {
  %1 = tail call ptr @wmem_file_scope()
  %2 = tail call noalias ptr @wmem_map_new(ptr noundef %1, ptr noundef nonnull @g_direct_hash, ptr noundef nonnull @g_direct_equal)
  store ptr %2, ptr @nbap_setup_conv_table, align 8
  br label %3

3:                                                ; preds = %0, %3
  %indvars.iv = phi i64 [ 0, %0 ], [ %indvars.iv.next, %3 ]
  %4 = getelementptr [16 x i32], ptr @lch_contents, i64 0, i64 %indvars.iv
  %5 = load i32, ptr %4, align 4
  %6 = trunc i32 %5 to i8
  %indvars.iv.next = add nuw nsw i64 %indvars.iv, 1
  %7 = getelementptr [16 x i8], ptr @lchId_type_table, i64 0, i64 %indvars.iv.next
  store i8 %6, ptr %7, align 1
  %exitcond.not = icmp eq i64 %indvars.iv.next, 15
  br i1 %exitcond.not, label %8, label %3, !llvm.loop !8

8:                                                ; preds = %3
  ret void
}